	.file	"HashTable.cpp"
	.intel_syntax noprefix
	.text
.Ltext0:
	.cfi_sections	.debug_frame
	.section .rdata,"dr"
.LC0:
	.ascii "ZERO PTR INPUT\0"
.LC1:
	.ascii "str_ptr\0"
.LC2:
	.ascii "HashFuncOne\0"
	.align 8
.LC3:
	.ascii "\12ERROR in function : %s \12%s have %s\12\0"
	.text
	.globl	_Z11HashFuncOnePc
	.def	_Z11HashFuncOnePc;	.scl	2;	.type	32;	.endef
	.seh_proc	_Z11HashFuncOnePc
_Z11HashFuncOnePc:
.LFB5936:
	.file 1 "HashTable.cpp"
	.loc 1 203 1
	.cfi_startproc
.LVL0:
	sub	rsp, 40
	.seh_stackalloc	40
	.cfi_def_cfa_offset 48
	.seh_endprologue
	.loc 1 204 5
	.loc 1 204 5
	.loc 1 206 12 is_stmt 0
	mov	eax, 1
	.loc 1 204 5
	test	rcx, rcx
	je	.L4
.LVL1:
.L1:
	.loc 1 207 1
	add	rsp, 40
	.cfi_remember_state
	.cfi_def_cfa_offset 8
	ret
.LVL2:
.L4:
	.cfi_restore_state
	.loc 1 204 5 is_stmt 1 discriminator 1
	lea	r9, .LC0[rip]
	lea	r8, .LC1[rip]
	lea	rdx, .LC2[rip]
	lea	rcx, .LC3[rip]
.LVL3:
	call	printf
.LVL4:
	.loc 1 204 5 discriminator 1
	mov	rax, -1
	jmp	.L1
	.cfi_endproc
.LFE5936:
	.seh_endproc
	.section .rdata,"dr"
.LC4:
	.ascii "hash_table\0"
.LC5:
	.ascii "HashCtor\0"
.LC6:
	.ascii "CALLOC HAS FALLEN\0"
.LC7:
	.ascii "hash_table->list\0"
	.text
	.globl	_Z8HashCtorP9HashTablei
	.def	_Z8HashCtorP9HashTablei;	.scl	2;	.type	32;	.endef
	.seh_proc	_Z8HashCtorP9HashTablei
_Z8HashCtorP9HashTablei:
.LFB5931:
	.loc 1 30 1
	.cfi_startproc
.LVL5:
	push	rdi
	.seh_pushreg	rdi
	.cfi_def_cfa_offset 16
	.cfi_offset 5, -16
	push	rsi
	.seh_pushreg	rsi
	.cfi_def_cfa_offset 24
	.cfi_offset 4, -24
	push	rbx
	.seh_pushreg	rbx
	.cfi_def_cfa_offset 32
	.cfi_offset 3, -32
	sub	rsp, 32
	.seh_stackalloc	32
	.cfi_def_cfa_offset 64
	.seh_endprologue
	mov	rdi, rcx
	mov	esi, edx
	.loc 1 31 5
	.loc 1 31 5
	test	rcx, rcx
	je	.L12
	.loc 1 33 5
	.loc 1 33 39 is_stmt 0
	movsx	rcx, edx
.LVL6:
	mov	edx, 64
.LVL7:
	call	calloc
.LVL8:
	.loc 1 33 22
	mov	QWORD PTR [rdi], rax
	.loc 1 34 5 is_stmt 1
	.loc 1 34 5
	test	rax, rax
	je	.L13
.LVL9:
.LBB9:
	.loc 1 36 23
	test	esi, esi
	jle	.L9
	mov	esi, esi
	sal	rsi, 6
.LVL10:
	mov	ebx, 0
.LVL11:
.L10:
	.loc 1 38 9 discriminator 2
	.loc 1 38 19 is_stmt 0 discriminator 2
	mov	rcx, rbx
	add	rcx, QWORD PTR [rdi]
	call	_Z9list_ctorP4List
.LVL12:
	.loc 1 36 5 is_stmt 1 discriminator 2
	.loc 1 36 23 discriminator 2
	add	rbx, 64
.LVL13:
	cmp	rbx, rsi
	jne	.L10
.LVL14:
.L9:
.LBE9:
	.loc 1 41 5
	.loc 1 41 27 is_stmt 0
	mov	DWORD PTR 8[rdi], 0
	.loc 1 42 5 is_stmt 1
	.loc 1 42 26 is_stmt 0
	mov	QWORD PTR 16[rdi], 0
	.loc 1 44 5 is_stmt 1
	.loc 1 44 12 is_stmt 0
	mov	eax, 0
.L5:
	.loc 1 45 1
	add	rsp, 32
	.cfi_remember_state
	.cfi_def_cfa_offset 32
	pop	rbx
	.cfi_restore 3
	.cfi_def_cfa_offset 24
	pop	rsi
	.cfi_restore 4
	.cfi_def_cfa_offset 16
	pop	rdi
	.cfi_restore 5
	.cfi_def_cfa_offset 8
.LVL15:
	ret
.LVL16:
.L12:
	.cfi_restore_state
	.loc 1 31 5 is_stmt 1 discriminator 1
	lea	r9, .LC0[rip]
	lea	r8, .LC4[rip]
	lea	rdx, .LC5[rip]
.LVL17:
	lea	rcx, .LC3[rip]
.LVL18:
	call	printf
.LVL19:
	.loc 1 31 5 discriminator 1
	mov	eax, -1
	jmp	.L5
.L13:
	.loc 1 34 5 discriminator 1
	lea	r9, .LC6[rip]
	lea	r8, .LC7[rip]
	lea	rdx, .LC5[rip]
	lea	rcx, .LC3[rip]
	call	printf
.LVL20:
	.loc 1 34 5 discriminator 1
	mov	eax, -1
	jmp	.L5
	.cfi_endproc
.LFE5931:
	.seh_endproc
	.section .rdata,"dr"
.LC8:
	.ascii "ZERO PTR INPUT HASH_TABLE\0"
.LC9:
	.ascii "HashDtor\0"
.LC10:
	.ascii "ZERO PTR INPUT LIST\0"
.LC11:
	.ascii "HashTable is dstrutced\0"
	.text
	.globl	_Z8HashDtorP9HashTable
	.def	_Z8HashDtorP9HashTable;	.scl	2;	.type	32;	.endef
	.seh_proc	_Z8HashDtorP9HashTable
_Z8HashDtorP9HashTable:
.LFB5932:
	.loc 1 48 1
	.cfi_startproc
.LVL21:
	push	rsi
	.seh_pushreg	rsi
	.cfi_def_cfa_offset 16
	.cfi_offset 4, -16
	push	rbx
	.seh_pushreg	rbx
	.cfi_def_cfa_offset 24
	.cfi_offset 3, -24
	sub	rsp, 40
	.seh_stackalloc	40
	.cfi_def_cfa_offset 64
	.seh_endprologue
	mov	rsi, rcx
	.loc 1 49 5
	.loc 1 49 5
	test	rcx, rcx
	je	.L21
	.loc 1 50 5
	.loc 1 50 5
	cmp	QWORD PTR [rcx], 0
	je	.L22
	.loc 1 52 5
	.loc 1 52 21 is_stmt 0
	mov	ebx, DWORD PTR 8[rcx]
	.loc 1 52 5
	cmp	ebx, -1
	je	.L23
	mov	ebx, 0
.LVL22:
.L18:
.LBB10:
	.loc 1 63 9 is_stmt 1 discriminator 2
	.loc 1 63 19 is_stmt 0 discriminator 2
	mov	rcx, rbx
	add	rcx, QWORD PTR [rsi]
	call	_Z9list_dtorP4List
.LVL23:
	.loc 1 61 5 is_stmt 1 discriminator 2
	.loc 1 61 23 discriminator 2
	add	rbx, 64
.LVL24:
	cmp	rbx, 1024
	jne	.L18
.LBE10:
	.loc 1 66 5
	.loc 1 66 27 is_stmt 0
	mov	DWORD PTR 8[rsi], -1
	.loc 1 67 5 is_stmt 1
	.loc 1 67 26 is_stmt 0
	mov	QWORD PTR 16[rsi], 0
	.loc 1 69 5 is_stmt 1
	.loc 1 69 10 is_stmt 0
	mov	rcx, QWORD PTR [rsi]
	call	free
.LVL25:
	.loc 1 71 5 is_stmt 1
	.loc 1 71 12 is_stmt 0
	mov	ebx, 0
.LVL26:
.L14:
	.loc 1 72 1
	mov	eax, ebx
	add	rsp, 40
	.cfi_remember_state
	.cfi_def_cfa_offset 24
	pop	rbx
	.cfi_restore 3
	.cfi_def_cfa_offset 16
	pop	rsi
	.cfi_restore 4
	.cfi_def_cfa_offset 8
.LVL27:
	ret
.LVL28:
.L21:
	.cfi_restore_state
	.loc 1 49 5 is_stmt 1 discriminator 1
	lea	r9, .LC8[rip]
	lea	r8, .LC4[rip]
	lea	rdx, .LC9[rip]
	lea	rcx, .LC3[rip]
.LVL29:
	call	printf
.LVL30:
	.loc 1 49 5 discriminator 1
	mov	ebx, -1
	jmp	.L14
.LVL31:
.L22:
	.loc 1 50 5 discriminator 1
	lea	r9, .LC10[rip]
	lea	r8, .LC7[rip]
	lea	rdx, .LC9[rip]
	lea	rcx, .LC3[rip]
.LVL32:
	call	printf
.LVL33:
	.loc 1 50 5 discriminator 1
	mov	ebx, -1
	jmp	.L14
.LVL34:
.L23:
	.loc 1 54 9
	.loc 1 54 16 is_stmt 0
	lea	rcx, .LC11[rip]
.LVL35:
	call	puts
.LVL36:
	.loc 1 55 9 is_stmt 1
	.loc 1 55 17 is_stmt 0
	jmp	.L14
	.cfi_endproc
.LFE5932:
	.seh_endproc
	.section .rdata,"dr"
.LC12:
	.ascii "ZERO PTR TABLE INPUT\0"
.LC13:
	.ascii "HashTableClear\0"
	.text
	.globl	_Z14HashTableClearP9HashTable
	.def	_Z14HashTableClearP9HashTable;	.scl	2;	.type	32;	.endef
	.seh_proc	_Z14HashTableClearP9HashTable
_Z14HashTableClearP9HashTable:
.LFB5933:
	.loc 1 75 1 is_stmt 1
	.cfi_startproc
.LVL37:
	push	rdi
	.seh_pushreg	rdi
	.cfi_def_cfa_offset 16
	.cfi_offset 5, -16
	push	rsi
	.seh_pushreg	rsi
	.cfi_def_cfa_offset 24
	.cfi_offset 4, -24
	push	rbx
	.seh_pushreg	rbx
	.cfi_def_cfa_offset 32
	.cfi_offset 3, -32
	sub	rsp, 32
	.seh_stackalloc	32
	.cfi_def_cfa_offset 64
	.seh_endprologue
	mov	rdi, rcx
	.loc 1 76 5
	.loc 1 76 5
	.loc 1 76 5
	test	rcx, rcx
	je	.L32
	mov	esi, 0
	jmp	.L25
.L32:
	.loc 1 76 5 discriminator 1
	lea	r9, .LC12[rip]
	lea	r8, .LC4[rip]
	lea	rdx, .LC13[rip]
	lea	rcx, .LC3[rip]
.LVL38:
	call	printf
.LVL39:
	.loc 1 76 5 discriminator 1
	mov	eax, -1
	jmp	.L24
.LVL40:
.L27:
.LBB11:
.LBB12:
	.loc 1 100 9 discriminator 2
	.loc 1 100 26 is_stmt 0 discriminator 2
	movsx	rcx, ecx
	.loc 1 100 40 discriminator 2
	mov	rax, QWORD PTR 16[rbx]
	mov	DWORD PTR -4[rax+rcx*4], 0
.LBE12:
	.loc 1 78 5 is_stmt 1 discriminator 2
.LVL41:
	.loc 1 78 23 discriminator 2
	add	rsi, 64
.LVL42:
	cmp	rsi, 1024
	je	.L33
.LVL43:
.L25:
.LBB14:
	.loc 1 80 9
	.loc 1 80 15 is_stmt 0
	mov	rbx, rsi
	add	rbx, QWORD PTR [rdi]
.LVL44:
	.loc 1 82 9 is_stmt 1
	.loc 1 82 15 is_stmt 0
	mov	rax, QWORD PTR 16[rbx]
	.loc 1 82 23
	mov	DWORD PTR [rax], 0
	.loc 1 83 9 is_stmt 1
	.loc 1 83 15 is_stmt 0
	mov	rax, QWORD PTR 8[rbx]
	.loc 1 83 23
	mov	DWORD PTR [rax], 0
	.loc 1 84 9 is_stmt 1
	.loc 1 84 22 is_stmt 0
	mov	BYTE PTR 56[rbx], 1
	.loc 1 86 9 is_stmt 1
	.loc 1 86 53 is_stmt 0
	movsx	r8, DWORD PTR 40[rbx]
	.loc 1 86 16
	mov	rcx, QWORD PTR [rbx]
	sal	r8, 3
	mov	edx, 0
	call	memset
.LVL45:
	.loc 1 87 9 is_stmt 1
	.loc 1 87 63 is_stmt 0
	mov	eax, DWORD PTR 40[rbx]
	lea	r8d, -1[rax]
	movsx	r8, r8d
	.loc 1 87 37
	mov	rax, QWORD PTR 16[rbx]
	lea	rcx, 4[rax]
	.loc 1 87 16
	sal	r8, 2
	mov	edx, 0
	call	memset
.LVL46:
	.loc 1 88 9 is_stmt 1
	.loc 1 88 63 is_stmt 0
	mov	eax, DWORD PTR 40[rbx]
	lea	r8d, -1[rax]
	movsx	r8, r8d
	.loc 1 88 37
	mov	rax, QWORD PTR 8[rbx]
	lea	rcx, 4[rax]
	.loc 1 88 16
	sal	r8, 2
	mov	edx, 0
	call	memset
.LVL47:
	.loc 1 90 9 is_stmt 1
	.loc 1 90 20 is_stmt 0
	mov	DWORD PTR 28[rbx], 1
	.loc 1 91 9 is_stmt 1
	.loc 1 91 20 is_stmt 0
	mov	DWORD PTR 32[rbx], 1
	.loc 1 92 9 is_stmt 1
	.loc 1 92 20 is_stmt 0
	mov	DWORD PTR 24[rbx], 1
	.loc 1 93 9 is_stmt 1
	.loc 1 93 20 is_stmt 0
	mov	DWORD PTR 36[rbx], 0
	.loc 1 95 9 is_stmt 1
.LVL48:
.LBB13:
	.loc 1 95 27
	.loc 1 95 35 is_stmt 0
	mov	ecx, DWORD PTR 40[rbx]
	.loc 1 95 27
	cmp	ecx, 1
	jle	.L27
	mov	edx, 4
	.loc 1 95 18
	mov	eax, 1
.LVL49:
.L28:
	.loc 1 97 13 is_stmt 1 discriminator 2
	.loc 1 97 31 is_stmt 0 discriminator 2
	add	eax, 1
.LVL50:
	.loc 1 97 27 discriminator 2
	mov	rcx, QWORD PTR 16[rbx]
	mov	DWORD PTR [rcx+rdx], eax
	.loc 1 95 9 is_stmt 1 discriminator 2
.LVL51:
	.loc 1 95 27 discriminator 2
	.loc 1 95 35 is_stmt 0 discriminator 2
	mov	ecx, DWORD PTR 40[rbx]
	.loc 1 95 27 discriminator 2
	add	rdx, 4
	cmp	ecx, eax
	jg	.L28
	jmp	.L27
.LVL52:
.L33:
.LBE13:
.LBE14:
.LBE11:
	.loc 1 103 5 is_stmt 1
	.loc 1 103 26 is_stmt 0
	mov	QWORD PTR 16[rdi], 0
	.loc 1 105 5 is_stmt 1
	.loc 1 105 12 is_stmt 0
	mov	eax, 0
.LVL53:
.L24:
	.loc 1 106 1
	add	rsp, 32
	.cfi_def_cfa_offset 32
	pop	rbx
	.cfi_restore 3
	.cfi_def_cfa_offset 24
	pop	rsi
	.cfi_restore 4
	.cfi_def_cfa_offset 16
	pop	rdi
	.cfi_restore 5
	.cfi_def_cfa_offset 8
.LVL54:
	ret
	.cfi_endproc
.LFE5933:
	.seh_endproc
	.section .rdata,"dr"
.LC14:
	.ascii "HashFind\0"
.LC15:
	.ascii "str\0"
.LC16:
	.ascii "%s = \0"
	.text
	.globl	_Z8HashFindP9HashTablePcPP4List
	.def	_Z8HashFindP9HashTablePcPP4List;	.scl	2;	.type	32;	.endef
	.seh_proc	_Z8HashFindP9HashTablePcPP4List
_Z8HashFindP9HashTablePcPP4List:
.LFB5935:
	.loc 1 166 1 is_stmt 1
	.cfi_startproc
.LVL55:
	push	rdi
	.seh_pushreg	rdi
	.cfi_def_cfa_offset 16
	.cfi_offset 5, -16
	push	rsi
	.seh_pushreg	rsi
	.cfi_def_cfa_offset 24
	.cfi_offset 4, -24
	push	rbx
	.seh_pushreg	rbx
	.cfi_def_cfa_offset 32
	.cfi_offset 3, -32
	sub	rsp, 64
	.seh_stackalloc	64
	.cfi_def_cfa_offset 96
	.seh_endprologue
	mov	rdi, rcx
	mov	rbx, rdx
	mov	rsi, r8
	.loc 1 167 5
	.loc 1 167 5
	.loc 1 167 5
	test	rcx, rcx
	je	.L42
	.loc 1 169 5
	.loc 1 169 5
	test	rdx, rdx
	je	.L43
	.loc 1 171 5
	.loc 1 171 47 is_stmt 0
	mov	rcx, rdx
.LVL56:
	call	[QWORD PTR 16[rdi]]
.LVL57:
	.loc 1 172 5 is_stmt 1
	.loc 1 173 5
	.loc 1 172 14 is_stmt 0
	cqo
	shr	rdx, 60
	add	rax, rdx
.LVL58:
	and	eax, 15
	sub	rax, rdx
	.loc 1 173 46
	sal	rax, 6
	.loc 1 173 19
	add	rax, QWORD PTR [rdi]
	.loc 1 173 17
	mov	QWORD PTR [rsi], rax
	.loc 1 174 5 is_stmt 1
.LVL59:
	.loc 1 176 5
.LBB15:
.LBB16:
	.file 2 "c:/users/user/gcc/lib/gcc/x86_64-w64-mingw32/10.2.0/include/emmintrin.h"
	.loc 2 703 3
	.loc 2 703 11 is_stmt 0
	movdqu	xmm1, XMMWORD PTR [rbx]
.LVL60:
.LBE16:
.LBE15:
	.loc 1 176 61
	movaps	XMMWORD PTR 48[rsp], xmm1
	.loc 1 177 5 is_stmt 1
.LVL61:
	.loc 1 179 5
	.loc 1 179 41
	.loc 1 179 32 is_stmt 0
	movsx	rcx, DWORD PTR 28[rax]
	.loc 1 179 39
	mov	rdx, QWORD PTR [rax]
	mov	rdx, QWORD PTR [rdx+rcx*8]
	.loc 1 179 41
	test	rdx, rdx
	je	.L40
.LVL62:
.L39:
.LBB17:
	.loc 1 181 9 is_stmt 1
	.loc 1 181 25 is_stmt 0
	movdqa	xmm0, XMMWORD PTR [rdx]
	.loc 1 181 17
	movaps	XMMWORD PTR 32[rsp], xmm0
	.loc 1 182 9 is_stmt 1
.LVL63:
	.loc 1 184 9
.LBB18:
.LBB19:
	.file 3 "c:/users/user/gcc/lib/gcc/x86_64-w64-mingw32/10.2.0/include/smmintrin.h"
	.loc 3 270 3
.LBE19:
.LBE18:
	.loc 1 185 9
.LBB21:
.LBB22:
	.loc 2 1409 3
.LBE22:
.LBE21:
.LBB24:
.LBB20:
	.loc 3 270 47 is_stmt 0
	pcmpeqq	xmm0, xmm1
.LBE20:
.LBE24:
.LBB25:
.LBB23:
	.loc 2 1409 37
	pmovmskb	edx, xmm0
.LVL64:
.LBE23:
.LBE25:
	.loc 1 186 9 is_stmt 1
	test	edx, edx
	jne	.L44
	.loc 1 194 9
	.loc 1 194 17 is_stmt 0
	mov	rdx, QWORD PTR 16[rax]
.LVL65:
.LBE17:
	.loc 1 179 5 is_stmt 1
	.loc 1 179 41
	.loc 1 179 32 is_stmt 0
	movsx	rcx, DWORD PTR [rdx+rcx*4]
.LVL66:
	.loc 1 179 39
	mov	rdx, QWORD PTR [rax]
	mov	rdx, QWORD PTR [rdx+rcx*8]
	.loc 1 179 41
	test	rdx, rdx
	jne	.L39
	.loc 1 197 12
	mov	eax, 1
	jmp	.L34
.LVL67:
.L42:
	.loc 1 167 5 is_stmt 1 discriminator 1
	lea	r9, .LC12[rip]
	lea	r8, .LC4[rip]
	lea	rdx, .LC14[rip]
.LVL68:
	lea	rcx, .LC3[rip]
.LVL69:
	call	printf
.LVL70:
	.loc 1 167 5 discriminator 1
	mov	eax, -1
	jmp	.L34
.LVL71:
.L43:
	.loc 1 169 5 discriminator 1
	lea	r9, .LC0[rip]
	lea	r8, .LC15[rip]
	lea	rdx, .LC14[rip]
.LVL72:
	lea	rcx, .LC3[rip]
.LVL73:
	call	printf
.LVL74:
	.loc 1 169 5 discriminator 1
	mov	eax, -1
	jmp	.L34
.LVL75:
.L44:
.LBB26:
	.loc 1 188 13
	.loc 1 188 20 is_stmt 0
	lea	rdx, 48[rsp]
	lea	rcx, .LC16[rip]
	call	printf
.LVL76:
	.loc 1 189 13 is_stmt 1
	.loc 1 189 20 is_stmt 0
	lea	rcx, 32[rsp]
	call	puts
.LVL77:
	.loc 1 191 13 is_stmt 1
	.loc 1 191 20 is_stmt 0
	mov	eax, 0
.LVL78:
.L34:
.LBE26:
	.loc 1 198 1
	add	rsp, 64
	.cfi_remember_state
	.cfi_def_cfa_offset 32
	pop	rbx
	.cfi_restore 3
	.cfi_def_cfa_offset 24
	pop	rsi
	.cfi_restore 4
	.cfi_def_cfa_offset 16
.LVL79:
	pop	rdi
	.cfi_restore 5
	.cfi_def_cfa_offset 8
.LVL80:
	ret
.LVL81:
.L40:
	.cfi_restore_state
	.loc 1 197 12
	mov	eax, 1
.LVL82:
	jmp	.L34
	.cfi_endproc
.LFE5935:
	.seh_endproc
	.section .rdata,"dr"
.LC17:
	.ascii "FHashPush\0"
.LC18:
	.ascii "ZERO PTR FUNC INPUT\0"
.LC19:
	.ascii "hash_table->HashFunc\0"
.LC20:
	.ascii "ZERO PTR ONEGIN STRUCT INPUT\0"
.LC21:
	.ascii "buffer\0"
	.text
	.globl	_Z9FHashPushP9HashTablePDv2_xi
	.def	_Z9FHashPushP9HashTablePDv2_xi;	.scl	2;	.type	32;	.endef
	.seh_proc	_Z9FHashPushP9HashTablePDv2_xi
_Z9FHashPushP9HashTablePDv2_xi:
.LFB5934:
	.loc 1 109 1 is_stmt 1
	.cfi_startproc
.LVL83:
	push	rbp
	.seh_pushreg	rbp
	.cfi_def_cfa_offset 16
	.cfi_offset 6, -16
	push	rdi
	.seh_pushreg	rdi
	.cfi_def_cfa_offset 24
	.cfi_offset 5, -24
	push	rsi
	.seh_pushreg	rsi
	.cfi_def_cfa_offset 32
	.cfi_offset 4, -32
	push	rbx
	.seh_pushreg	rbx
	.cfi_def_cfa_offset 40
	.cfi_offset 3, -40
	sub	rsp, 56
	.seh_stackalloc	56
	.cfi_def_cfa_offset 96
	.seh_endprologue
	mov	rsi, rcx
	.loc 1 110 5
	.loc 1 110 5
	.loc 1 110 5
	test	rcx, rcx
	je	.L55
	.loc 1 111 5
	.loc 1 111 5
	cmp	QWORD PTR 16[rcx], 0
	je	.L56
	.loc 1 112 5
	.loc 1 112 5
	test	rdx, rdx
	je	.L57
.LVL84:
.LBB27:
	.loc 1 114 23
	test	r8d, r8d
	jle	.L53
	mov	rbx, rdx
	lea	eax, -1[r8]
	sal	rax, 4
	lea	rbp, 16[rdx+rax]
.LBB28:
	.loc 1 124 22 is_stmt 0
	lea	rdi, 40[rsp]
	jmp	.L52
.LVL85:
.L55:
.LBE28:
.LBE27:
	.loc 1 110 5 is_stmt 1 discriminator 1
	lea	r9, .LC12[rip]
	lea	r8, .LC4[rip]
.LVL86:
	lea	rdx, .LC17[rip]
.LVL87:
	lea	rcx, .LC3[rip]
.LVL88:
	call	printf
.LVL89:
	.loc 1 110 5 discriminator 1
	mov	eax, -1
	jmp	.L45
.LVL90:
.L56:
	.loc 1 111 5 discriminator 1
	lea	r9, .LC18[rip]
	lea	r8, .LC19[rip]
.LVL91:
	lea	rdx, .LC17[rip]
.LVL92:
	lea	rcx, .LC3[rip]
.LVL93:
	call	printf
.LVL94:
	.loc 1 111 5 discriminator 1
	mov	eax, -1
	jmp	.L45
.LVL95:
.L57:
	.loc 1 112 5 discriminator 1
	lea	r9, .LC20[rip]
	lea	r8, .LC21[rip]
.LVL96:
	lea	rdx, .LC17[rip]
.LVL97:
	lea	rcx, .LC3[rip]
.LVL98:
	call	printf
.LVL99:
	.loc 1 112 5 discriminator 1
	mov	eax, -1
	jmp	.L45
.LVL100:
.L51:
.LBB30:
	.loc 1 114 5 discriminator 2
	.loc 1 114 23 discriminator 2
	add	rbx, 16
.LVL101:
	cmp	rbx, rbp
	je	.L58
.LVL102:
.L52:
.LBB29:
	.loc 1 116 9
	.loc 1 116 15 is_stmt 0
	mov	QWORD PTR 40[rsp], 0
	.loc 1 117 9 is_stmt 1
.LVL103:
	.loc 1 124 9
	.loc 1 124 22 is_stmt 0
	mov	r8, rdi
	mov	rdx, rbx
	mov	rcx, rsi
	call	_Z8HashFindP9HashTablePcPP4List
.LVL104:
	.loc 1 124 9
	test	eax, eax
	jle	.L51
	.loc 1 130 13 is_stmt 1
	.loc 1 130 27 is_stmt 0
	mov	rdx, QWORD PTR 40[rsp]
	mov	rcx, rbx
	call	_Z13list_end_pushPDv2_xP4List
.LVL105:
	jmp	.L51
.LVL106:
.L58:
.LBE29:
.LBE30:
	.loc 1 134 12
	mov	eax, 0
.LVL107:
.L45:
	.loc 1 135 1
	add	rsp, 56
	.cfi_remember_state
	.cfi_def_cfa_offset 40
	pop	rbx
	.cfi_restore 3
	.cfi_def_cfa_offset 32
	pop	rsi
	.cfi_restore 4
	.cfi_def_cfa_offset 24
.LVL108:
	pop	rdi
	.cfi_restore 5
	.cfi_def_cfa_offset 16
	pop	rbp
	.cfi_restore 6
	.cfi_def_cfa_offset 8
	ret
.LVL109:
.L53:
	.cfi_restore_state
	.loc 1 134 12
	mov	eax, 0
	jmp	.L45
	.cfi_endproc
.LFE5934:
	.seh_endproc
	.section .rdata,"dr"
.LC22:
	.ascii "HashFuncAsciiFirstLetter\0"
	.text
	.globl	_Z24HashFuncAsciiFirstLetterPc
	.def	_Z24HashFuncAsciiFirstLetterPc;	.scl	2;	.type	32;	.endef
	.seh_proc	_Z24HashFuncAsciiFirstLetterPc
_Z24HashFuncAsciiFirstLetterPc:
.LFB5937:
	.loc 1 210 1 is_stmt 1
	.cfi_startproc
.LVL110:
	sub	rsp, 40
	.seh_stackalloc	40
	.cfi_def_cfa_offset 48
	.seh_endprologue
	.loc 1 211 5
	.loc 1 211 5
	test	rcx, rcx
	je	.L62
	.loc 1 213 5
	.loc 1 213 21 is_stmt 0
	movsx	rax, BYTE PTR [rcx]
.LVL111:
.L59:
	.loc 1 214 1
	add	rsp, 40
	.cfi_remember_state
	.cfi_def_cfa_offset 8
	ret
.LVL112:
.L62:
	.cfi_restore_state
	.loc 1 211 5 is_stmt 1 discriminator 1
	lea	r9, .LC0[rip]
	lea	r8, .LC1[rip]
	lea	rdx, .LC22[rip]
	lea	rcx, .LC3[rip]
.LVL113:
	call	printf
.LVL114:
	.loc 1 211 5 discriminator 1
	mov	rax, -1
	jmp	.L59
	.cfi_endproc
.LFE5937:
	.seh_endproc
	.section .rdata,"dr"
.LC23:
	.ascii "HashFuncLength\0"
	.text
	.globl	_Z14HashFuncLengthPc
	.def	_Z14HashFuncLengthPc;	.scl	2;	.type	32;	.endef
	.seh_proc	_Z14HashFuncLengthPc
_Z14HashFuncLengthPc:
.LFB5938:
	.loc 1 217 1
	.cfi_startproc
.LVL115:
	sub	rsp, 40
	.seh_stackalloc	40
	.cfi_def_cfa_offset 48
	.seh_endprologue
	.loc 1 218 5
	.loc 1 218 5
	test	rcx, rcx
	je	.L66
	.loc 1 220 5
	.loc 1 220 19 is_stmt 0
	call	strlen
.LVL116:
.L63:
	.loc 1 221 1
	add	rsp, 40
	.cfi_remember_state
	.cfi_def_cfa_offset 8
	ret
.LVL117:
.L66:
	.cfi_restore_state
	.loc 1 218 5 is_stmt 1 discriminator 1
	lea	r9, .LC0[rip]
	lea	r8, .LC1[rip]
	lea	rdx, .LC23[rip]
	lea	rcx, .LC3[rip]
.LVL118:
	call	printf
.LVL119:
	.loc 1 218 5 discriminator 1
	mov	rax, -1
	jmp	.L63
	.cfi_endproc
.LFE5938:
	.seh_endproc
	.section .rdata,"dr"
.LC24:
	.ascii "HashFuncAsciiAllLeters\0"
	.text
	.globl	_Z22HashFuncAsciiAllLetersPc
	.def	_Z22HashFuncAsciiAllLetersPc;	.scl	2;	.type	32;	.endef
	.seh_proc	_Z22HashFuncAsciiAllLetersPc
_Z22HashFuncAsciiAllLetersPc:
.LFB5939:
	.loc 1 224 1
	.cfi_startproc
.LVL120:
	sub	rsp, 40
	.seh_stackalloc	40
	.cfi_def_cfa_offset 48
	.seh_endprologue
	.loc 1 225 5
	.loc 1 225 5
	test	rcx, rcx
	je	.L74
.LVL121:
	.loc 1 229 5
	.loc 1 229 24
	.loc 1 229 22 is_stmt 0
	movzx	eax, BYTE PTR [rcx]
	.loc 1 229 24
	test	al, al
	je	.L72
	add	rcx, 1
.LVL122:
	.loc 1 227 9
	mov	edx, 0
.LVL123:
.L71:
	.loc 1 231 9 is_stmt 1
	.loc 1 231 21 is_stmt 0
	movsx	eax, al
	.loc 1 231 13
	add	edx, eax
.LVL124:
	.loc 1 232 9 is_stmt 1
	.loc 1 229 5
	.loc 1 229 24
	add	rcx, 1
.LVL125:
	.loc 1 229 22 is_stmt 0
	movzx	eax, BYTE PTR -1[rcx]
	.loc 1 229 24
	test	al, al
	jne	.L71
.LVL126:
.L70:
	.loc 1 235 5 is_stmt 1
	.loc 1 235 12 is_stmt 0
	movsx	rax, edx
.L67:
	.loc 1 236 1
	add	rsp, 40
	.cfi_remember_state
	.cfi_def_cfa_offset 8
	ret
.LVL127:
.L74:
	.cfi_restore_state
	.loc 1 225 5 is_stmt 1 discriminator 1
	lea	r9, .LC0[rip]
	lea	r8, .LC1[rip]
	lea	rdx, .LC24[rip]
	lea	rcx, .LC3[rip]
.LVL128:
	call	printf
.LVL129:
	.loc 1 225 5 discriminator 1
	mov	rax, -1
	jmp	.L67
.LVL130:
.L72:
	.loc 1 227 9 is_stmt 0
	mov	edx, 0
	jmp	.L70
	.cfi_endproc
.LFE5939:
	.seh_endproc
	.section .rdata,"dr"
.LC25:
	.ascii "HashFuncRol\0"
	.text
	.globl	_Z11HashFuncRolPc
	.def	_Z11HashFuncRolPc;	.scl	2;	.type	32;	.endef
	.seh_proc	_Z11HashFuncRolPc
_Z11HashFuncRolPc:
.LFB5940:
	.loc 1 239 1 is_stmt 1
	.cfi_startproc
.LVL131:
	sub	rsp, 40
	.seh_stackalloc	40
	.cfi_def_cfa_offset 48
	.seh_endprologue
	.loc 1 240 5
	.loc 1 240 5
	test	rcx, rcx
	je	.L78
	.loc 1 242 5
.LVL132:
	.loc 1 243 5
	.loc 1 243 12 is_stmt 0
	movsx	eax, BYTE PTR [rcx]
.LVL133:
.L75:
	.loc 1 269 1
	add	rsp, 40
	.cfi_remember_state
	.cfi_def_cfa_offset 8
	ret
.LVL134:
.L78:
	.cfi_restore_state
	.loc 1 240 5 is_stmt 1 discriminator 1
	lea	r9, .LC0[rip]
	lea	r8, .LC1[rip]
	lea	rdx, .LC25[rip]
	lea	rcx, .LC3[rip]
.LVL135:
	call	printf
.LVL136:
	.loc 1 240 5 discriminator 1
	mov	rax, -1
	jmp	.L75
	.cfi_endproc
.LFE5940:
	.seh_endproc
	.section .rdata,"dr"
.LC26:
	.ascii "key\0"
.LC27:
	.ascii "MurmurHash2\0"
	.text
	.globl	_Z11MurmurHash2Pc
	.def	_Z11MurmurHash2Pc;	.scl	2;	.type	32;	.endef
	.seh_proc	_Z11MurmurHash2Pc
_Z11MurmurHash2Pc:
.LFB5941:
	.loc 1 273 1
	.cfi_startproc
.LVL137:
	push	rbx
	.seh_pushreg	rbx
	.cfi_def_cfa_offset 16
	.cfi_offset 3, -16
	sub	rsp, 32
	.seh_stackalloc	32
	.cfi_def_cfa_offset 48
	.seh_endprologue
	mov	rbx, rcx
	.loc 1 276 5
	.loc 1 276 5
	test	rcx, rcx
	je	.L90
	.loc 1 278 5
	.loc 1 278 31 is_stmt 0
	call	strlen
.LVL138:
	mov	rcx, rax
	.loc 1 278 18
	mov	r10d, eax
.LVL139:
	.loc 1 279 5 is_stmt 1
	.loc 1 280 5
	.loc 1 281 5
	.loc 1 283 5
	.loc 1 285 5
	.loc 1 287 5
	.loc 1 287 16
	cmp	eax, 3
	jbe	.L88
	sub	ecx, 4
	mov	r9d, ecx
	shr	r9d, 2
	lea	eax, 1[r9]
.LVL140:
	mov	eax, eax
	lea	r8, [rbx+rax*4]
.LVL141:
.L83:
.LBB31:
	.loc 1 289 9
	.loc 1 291 9
	.loc 1 291 12 is_stmt 0
	movzx	r11d, BYTE PTR [rbx]
.LVL142:
	.loc 1 292 9 is_stmt 1
	.loc 1 293 9
	.loc 1 292 20 is_stmt 0
	movzx	eax, BYTE PTR 1[rbx]
	.loc 1 292 22
	sal	eax, 8
	.loc 1 293 20
	movzx	edx, BYTE PTR 2[rbx]
	.loc 1 293 22
	sal	edx, 16
	.loc 1 293 11
	or	eax, edx
	or	eax, r11d
	mov	edx, eax
.LVL143:
	.loc 1 294 9 is_stmt 1
	.loc 1 294 20 is_stmt 0
	movzx	eax, BYTE PTR 3[rbx]
.LVL144:
	.loc 1 294 22
	sal	eax, 24
	.loc 1 294 11
	or	eax, edx
.LVL145:
	.loc 1 296 9 is_stmt 1
	.loc 1 296 11 is_stmt 0
	imul	eax, eax, 1540483477
.LVL146:
	.loc 1 297 9 is_stmt 1
	.loc 1 297 16 is_stmt 0
	mov	edx, eax
	shr	edx, 24
	.loc 1 297 11
	xor	eax, edx
.LVL147:
	.loc 1 298 9 is_stmt 1
	.loc 1 300 9
	.loc 1 300 11 is_stmt 0
	imul	r10d, r10d, 1540483477
.LVL148:
	.loc 1 301 9 is_stmt 1
	.loc 1 298 11 is_stmt 0
	imul	eax, eax, 1540483477
.LVL149:
	.loc 1 301 11
	xor	r10d, eax
.LVL150:
	.loc 1 303 9 is_stmt 1
	.loc 1 303 14 is_stmt 0
	add	rbx, 4
.LVL151:
	.loc 1 304 9 is_stmt 1
.LBE31:
	.loc 1 287 5
	.loc 1 287 16
	cmp	rbx, r8
	jne	.L83
.LBB32:
	.loc 1 304 13 is_stmt 0
	sal	r9d, 2
	sub	ecx, r9d
.LVL152:
.L82:
.LBE32:
	.loc 1 307 5 is_stmt 1
	cmp	ecx, 2
	je	.L84
	cmp	ecx, 3
	je	.L85
	cmp	ecx, 1
	je	.L91
.L87:
	.loc 1 331 5
	.loc 1 331 12 is_stmt 0
	mov	eax, r10d
	shr	eax, 13
	.loc 1 331 7
	xor	eax, r10d
.LVL153:
	.loc 1 332 5 is_stmt 1
	.loc 1 332 7 is_stmt 0
	imul	eax, eax, 1540483477
.LVL154:
	.loc 1 333 5 is_stmt 1
	.loc 1 333 12 is_stmt 0
	mov	r10d, eax
	shr	r10d, 15
.LVL155:
	.loc 1 335 5 is_stmt 1
	.loc 1 335 23 is_stmt 0
	xor	eax, r10d
.LVL156:
.L79:
	.loc 1 336 1
	add	rsp, 32
	.cfi_remember_state
	.cfi_def_cfa_offset 16
	pop	rbx
	.cfi_restore 3
	.cfi_def_cfa_offset 8
	ret
.LVL157:
.L90:
	.cfi_restore_state
	.loc 1 276 5 is_stmt 1 discriminator 1
	lea	r9, .LC0[rip]
	lea	r8, .LC26[rip]
	lea	rdx, .LC27[rip]
	lea	rcx, .LC3[rip]
.LVL158:
	call	printf
.LVL159:
	.loc 1 276 5 discriminator 1
	mov	rax, -1
	jmp	.L79
.LVL160:
.L88:
	.loc 1 285 27 is_stmt 0
	mov	r8, rbx
	jmp	.L82
.LVL161:
.L85:
	.loc 1 309 9 is_stmt 1
	.loc 1 310 9
	.loc 1 311 13
	.loc 1 311 24 is_stmt 0
	movzx	eax, BYTE PTR 2[r8]
	.loc 1 311 26
	sal	eax, 16
	.loc 1 311 15
	xor	r10d, eax
.LVL162:
	.loc 1 312 13 is_stmt 1
	jmp	.L87
.L84:
	.loc 1 314 9
	.loc 1 315 9
	.loc 1 316 13
	.loc 1 316 24 is_stmt 0
	movzx	eax, BYTE PTR 1[r8]
	.loc 1 316 26
	sal	eax, 8
	.loc 1 316 15
	xor	r10d, eax
.LVL163:
	.loc 1 317 13 is_stmt 1
	jmp	.L87
.L91:
	.loc 1 319 9
	.loc 1 320 9
	.loc 1 321 13
	.loc 1 321 24 is_stmt 0
	movzx	eax, BYTE PTR [r8]
	.loc 1 321 15
	xor	eax, r10d
.LVL164:
	.loc 1 322 13 is_stmt 1
	.loc 1 322 15 is_stmt 0
	imul	r10d, eax, 1540483477
.LVL165:
	.loc 1 323 13 is_stmt 1
	jmp	.L87
	.cfi_endproc
.LFE5941:
	.seh_endproc
	.section .rdata,"dr"
.LC28:
	.ascii "HashVerificate\0"
.LC29:
	.ascii "ERROR_LIST_ARRAY_ZERO_PTR\0"
.LC30:
	.ascii "NO ERROR\0"
	.text
	.globl	_Z14HashVerificateP9HashTable
	.def	_Z14HashVerificateP9HashTable;	.scl	2;	.type	32;	.endef
	.seh_proc	_Z14HashVerificateP9HashTable
_Z14HashVerificateP9HashTable:
.LFB5942:
	.loc 1 339 1
	.cfi_startproc
.LVL166:
	push	rdi
	.seh_pushreg	rdi
	.cfi_def_cfa_offset 16
	.cfi_offset 5, -16
	push	rsi
	.seh_pushreg	rsi
	.cfi_def_cfa_offset 24
	.cfi_offset 4, -24
	push	rbx
	.seh_pushreg	rbx
	.cfi_def_cfa_offset 32
	.cfi_offset 3, -32
	sub	rsp, 32
	.seh_stackalloc	32
	.cfi_def_cfa_offset 64
	.seh_endprologue
	mov	rdi, rcx
	.loc 1 340 5
	.loc 1 340 5
	test	rcx, rcx
	je	.L99
	.loc 1 342 5
.LVL167:
	.loc 1 344 5
	.loc 1 342 9 is_stmt 0
	mov	esi, 0
	.loc 1 344 5
	cmp	QWORD PTR [rcx], 0
	je	.L100
.LVL168:
.L95:
.LBB33:
	.loc 1 350 23 is_stmt 1 discriminator 3
.LBE33:
	.loc 1 342 9 is_stmt 0 discriminator 3
	mov	ebx, 0
.LVL169:
.L96:
.LBB34:
	.loc 1 352 9 is_stmt 1 discriminator 2
	.loc 1 352 41 is_stmt 0 discriminator 2
	mov	rcx, rbx
	add	rcx, QWORD PTR [rdi]
	call	_Z15list_verificateP4List
.LVL170:
	.loc 1 352 15 discriminator 2
	add	esi, eax
.LVL171:
	.loc 1 350 5 is_stmt 1 discriminator 2
	.loc 1 350 23 discriminator 2
	add	rbx, 64
.LVL172:
	cmp	rbx, 1024
	jne	.L96
.LBE34:
	.loc 1 355 5
	test	esi, esi
	jne	.L92
	.loc 1 357 9
	.loc 1 357 27 is_stmt 0
	lea	rax, .LC30[rip]
	mov	QWORD PTR 24[rdi], rax
.LVL173:
.L92:
	.loc 1 361 1
	mov	eax, esi
	add	rsp, 32
	.cfi_remember_state
	.cfi_def_cfa_offset 32
	pop	rbx
	.cfi_restore 3
	.cfi_def_cfa_offset 24
	pop	rsi
	.cfi_restore 4
	.cfi_def_cfa_offset 16
	pop	rdi
	.cfi_restore 5
	.cfi_def_cfa_offset 8
.LVL174:
	ret
.LVL175:
.L99:
	.cfi_restore_state
	.loc 1 340 5 is_stmt 1 discriminator 1
	lea	r9, .LC12[rip]
	lea	r8, .LC4[rip]
	lea	rdx, .LC28[rip]
	lea	rcx, .LC3[rip]
.LVL176:
	call	printf
.LVL177:
	.loc 1 340 5 discriminator 1
	mov	esi, -1
	jmp	.L92
.LVL178:
.L100:
	.loc 1 346 9
	.loc 1 347 9
	.loc 1 347 27 is_stmt 0
	lea	rax, .LC29[rip]
	mov	QWORD PTR 24[rcx], rax
	.loc 1 346 15
	mov	esi, 14
	jmp	.L95
	.cfi_endproc
.LFE5942:
	.seh_endproc
	.section .rdata,"dr"
.LC31:
	.ascii "ZERO PTR ARRAY INPUT\0"
.LC32:
	.ascii "size_array\0"
.LC33:
	.ascii "MakeDiagram\0"
.LC34:
	.ascii "ZERO PTR FILE INPUT\0"
.LC35:
	.ascii "file_output\0"
.LC36:
	.ascii "Hash_%d;\0"
.LC37:
	.ascii "%d;\0"
.LC38:
	.ascii "\12\12\0"
	.text
	.globl	_Z11MakeDiagramPiP6_iobuf
	.def	_Z11MakeDiagramPiP6_iobuf;	.scl	2;	.type	32;	.endef
	.seh_proc	_Z11MakeDiagramPiP6_iobuf
_Z11MakeDiagramPiP6_iobuf:
.LFB5943:
	.loc 1 365 1 is_stmt 1
	.cfi_startproc
.LVL179:
	push	r14
	.seh_pushreg	r14
	.cfi_def_cfa_offset 16
	.cfi_offset 14, -16
	push	r13
	.seh_pushreg	r13
	.cfi_def_cfa_offset 24
	.cfi_offset 13, -24
	push	r12
	.seh_pushreg	r12
	.cfi_def_cfa_offset 32
	.cfi_offset 12, -32
	push	rbp
	.seh_pushreg	rbp
	.cfi_def_cfa_offset 40
	.cfi_offset 6, -40
	push	rdi
	.seh_pushreg	rdi
	.cfi_def_cfa_offset 48
	.cfi_offset 5, -48
	push	rsi
	.seh_pushreg	rsi
	.cfi_def_cfa_offset 56
	.cfi_offset 4, -56
	push	rbx
	.seh_pushreg	rbx
	.cfi_def_cfa_offset 64
	.cfi_offset 3, -64
	sub	rsp, 32
	.seh_stackalloc	32
	.cfi_def_cfa_offset 96
	.seh_endprologue
	mov	rdi, rdx
	.loc 1 366 5
	.loc 1 366 5
	test	rcx, rcx
	je	.L109
	.loc 1 367 5
	.loc 1 367 5
	test	rdx, rdx
	je	.L110
	lea	rsi, 64[rcx]
.LBB35:
	.loc 1 369 14 is_stmt 0
	mov	r12d, 0
.LBB36:
	.loc 1 371 17
	lea	r14, .LC36[rip]
.LBB37:
	.loc 1 374 21
	lea	rbp, .LC37[rip]
.LBE37:
	.loc 1 376 17
	lea	r13, .LC38[rip]
.LVL180:
.L106:
	.loc 1 371 9 is_stmt 1
	.loc 1 371 17 is_stmt 0
	add	r12d, 1
.LVL181:
	mov	r8d, r12d
	mov	rdx, r14
	mov	rcx, rdi
	call	fprintf
.LVL182:
	.loc 1 372 9 is_stmt 1
.LBB38:
	.loc 1 372 27
	lea	rbx, -64[rsi]
.LVL183:
.L105:
	.loc 1 374 13 discriminator 2
	.loc 1 374 21 is_stmt 0 discriminator 2
	mov	r8d, DWORD PTR [rbx]
	mov	rdx, rbp
	mov	rcx, rdi
	call	fprintf
.LVL184:
	.loc 1 372 9 is_stmt 1 discriminator 2
	.loc 1 372 27 discriminator 2
	add	rbx, 4
.LVL185:
	cmp	rbx, rsi
	jne	.L105
.LBE38:
	.loc 1 376 9 discriminator 2
	.loc 1 376 17 is_stmt 0 discriminator 2
	mov	r9, rdi
	mov	r8d, 2
	mov	edx, 1
	mov	rcx, r13
	call	fwrite
.LVL186:
.LBE36:
	.loc 1 369 5 is_stmt 1 discriminator 2
	.loc 1 369 23 discriminator 2
	add	rsi, 64
	cmp	r12d, 6
	jne	.L106
.LBE35:
	.loc 1 378 12 is_stmt 0
	mov	eax, 0
.LVL187:
.L101:
	.loc 1 379 1
	add	rsp, 32
	.cfi_remember_state
	.cfi_def_cfa_offset 64
	pop	rbx
	.cfi_restore 3
	.cfi_def_cfa_offset 56
	pop	rsi
	.cfi_restore 4
	.cfi_def_cfa_offset 48
	pop	rdi
	.cfi_restore 5
	.cfi_def_cfa_offset 40
.LVL188:
	pop	rbp
	.cfi_restore 6
	.cfi_def_cfa_offset 32
	pop	r12
	.cfi_restore 12
	.cfi_def_cfa_offset 24
	pop	r13
	.cfi_restore 13
	.cfi_def_cfa_offset 16
	pop	r14
	.cfi_restore 14
	.cfi_def_cfa_offset 8
	ret
.LVL189:
.L109:
	.cfi_restore_state
	.loc 1 366 5 is_stmt 1 discriminator 1
	lea	r9, .LC31[rip]
	lea	r8, .LC32[rip]
	lea	rdx, .LC33[rip]
.LVL190:
	lea	rcx, .LC3[rip]
.LVL191:
	call	printf
.LVL192:
	.loc 1 366 5 discriminator 1
	mov	eax, -1
	jmp	.L101
.LVL193:
.L110:
	.loc 1 367 5 discriminator 1
	lea	r9, .LC34[rip]
	lea	r8, .LC35[rip]
	lea	rdx, .LC33[rip]
.LVL194:
	lea	rcx, .LC3[rip]
.LVL195:
	call	printf
.LVL196:
	.loc 1 367 5 discriminator 1
	mov	eax, -1
	jmp	.L101
	.cfi_endproc
.LFE5943:
	.seh_endproc
	.section .rdata,"dr"
.LC39:
	.ascii "MakeHashNDiagram\0"
.LC40:
	.ascii "ERROR CALLOC\0"
	.text
	.globl	_Z16MakeHashNDiagramP9HashTablePDv2_xiP6_iobuf
	.def	_Z16MakeHashNDiagramP9HashTablePDv2_xiP6_iobuf;	.scl	2;	.type	32;	.endef
	.seh_proc	_Z16MakeHashNDiagramP9HashTablePDv2_xiP6_iobuf
_Z16MakeHashNDiagramP9HashTablePDv2_xiP6_iobuf:
.LFB5944:
	.loc 1 397 1
	.cfi_startproc
.LVL197:
	push	r12
	.seh_pushreg	r12
	.cfi_def_cfa_offset 16
	.cfi_offset 12, -16
	push	rbp
	.seh_pushreg	rbp
	.cfi_def_cfa_offset 24
	.cfi_offset 6, -24
	push	rdi
	.seh_pushreg	rdi
	.cfi_def_cfa_offset 32
	.cfi_offset 5, -32
	push	rsi
	.seh_pushreg	rsi
	.cfi_def_cfa_offset 40
	.cfi_offset 4, -40
	push	rbx
	.seh_pushreg	rbx
	.cfi_def_cfa_offset 48
	.cfi_offset 3, -48
	sub	rsp, 32
	.seh_stackalloc	32
	.cfi_def_cfa_offset 80
	.seh_endprologue
	mov	rbx, rcx
	mov	rbp, rdx
	mov	r12d, r8d
	mov	rdi, r9
	.loc 1 398 5
	.loc 1 398 5
	.loc 1 398 5
	test	rcx, rcx
	je	.L119
	.loc 1 399 5
	.loc 1 399 5
	test	r9, r9
	je	.L120
	.loc 1 400 5
	.loc 1 400 5
	test	rdx, rdx
	je	.L121
	.loc 1 404 5
	.loc 1 404 37 is_stmt 0
	mov	edx, 4
.LVL198:
	mov	ecx, 96
.LVL199:
	call	calloc
.LVL200:
	mov	rsi, rax
.LVL201:
	.loc 1 405 5 is_stmt 1
	.loc 1 405 5
	test	rax, rax
	je	.L122
	.loc 1 407 5
	.loc 1 407 27 is_stmt 0
	mov	DWORD PTR 8[rbx], 1
	.loc 1 409 5 is_stmt 1
.LBB39:
	.loc 1 409 5
	mov	rcx, rbx
	call	_Z14HashTableClearP9HashTable
.LVL202:
	.loc 1 409 5
	lea	rax, _Z11HashFuncOnePc[rip]
	mov	QWORD PTR 16[rbx], rax
	.loc 1 409 5
	mov	r8d, r12d
	mov	rdx, rbp
	mov	rcx, rbx
	call	_Z9FHashPushP9HashTablePDv2_xi
.LVL203:
	.loc 1 409 5
.LBB40:
	.loc 1 409 5
	mov	r8, QWORD PTR [rbx]
	lea	rax, 36[r8]
	mov	rdx, rsi
	add	r8, 1060
.LVL204:
.L117:
	.loc 1 409 5 discriminator 3
	mov	ecx, DWORD PTR [rax]
	mov	DWORD PTR [rdx], ecx
	.loc 1 409 5 discriminator 3
.LVL205:
	.loc 1 409 5 discriminator 3
	add	rax, 64
.LVL206:
	add	rdx, 4
	cmp	rax, r8
	jne	.L117
.LBE40:
.LBE39:
	.loc 1 409 37 discriminator 2
	.loc 1 417 5 discriminator 2
	.loc 1 417 17 is_stmt 0 discriminator 2
	mov	rdx, rdi
	mov	rcx, rsi
	call	_Z11MakeDiagramPiP6_iobuf
.LVL207:
	.loc 1 419 5 is_stmt 1 discriminator 2
	.loc 1 419 10 is_stmt 0 discriminator 2
	mov	rcx, rsi
	call	free
.LVL208:
	.loc 1 421 5 is_stmt 1 discriminator 2
	.loc 1 421 12 is_stmt 0 discriminator 2
	mov	eax, 0
.LVL209:
.L111:
	.loc 1 422 1
	add	rsp, 32
	.cfi_remember_state
	.cfi_def_cfa_offset 48
	pop	rbx
	.cfi_restore 3
	.cfi_def_cfa_offset 40
.LVL210:
	pop	rsi
	.cfi_restore 4
	.cfi_def_cfa_offset 32
	pop	rdi
	.cfi_restore 5
	.cfi_def_cfa_offset 24
.LVL211:
	pop	rbp
	.cfi_restore 6
	.cfi_def_cfa_offset 16
.LVL212:
	pop	r12
	.cfi_restore 12
	.cfi_def_cfa_offset 8
.LVL213:
	ret
.LVL214:
.L119:
	.cfi_restore_state
	.loc 1 398 5 is_stmt 1 discriminator 1
	lea	r9, .LC12[rip]
	lea	r8, .LC4[rip]
.LVL215:
	lea	rdx, .LC39[rip]
.LVL216:
	lea	rcx, .LC3[rip]
.LVL217:
	call	printf
.LVL218:
	.loc 1 398 5 discriminator 1
	mov	eax, -1
	jmp	.L111
.LVL219:
.L120:
	.loc 1 399 5 discriminator 1
	lea	r9, .LC34[rip]
	lea	r8, .LC35[rip]
.LVL220:
	lea	rdx, .LC39[rip]
.LVL221:
	lea	rcx, .LC3[rip]
.LVL222:
	call	printf
.LVL223:
	.loc 1 399 5 discriminator 1
	mov	eax, -1
	jmp	.L111
.LVL224:
.L121:
	.loc 1 400 5 discriminator 1
	lea	r9, .LC20[rip]
	lea	r8, .LC21[rip]
.LVL225:
	lea	rdx, .LC39[rip]
.LVL226:
	lea	rcx, .LC3[rip]
.LVL227:
	call	printf
.LVL228:
	.loc 1 400 5 discriminator 1
	mov	eax, -1
	jmp	.L111
.LVL229:
.L122:
	.loc 1 405 5 discriminator 1
	lea	r9, .LC40[rip]
	lea	r8, .LC32[rip]
	lea	rdx, .LC39[rip]
	lea	rcx, .LC3[rip]
	call	printf
.LVL230:
	.loc 1 405 5 discriminator 1
	mov	eax, -1
	jmp	.L111
	.cfi_endproc
.LFE5944:
	.seh_endproc
.Letext0:
	.file 4 "c:/users/user/gcc/x86_64-w64-mingw32/include/crtdefs.h"
	.file 5 "c:/users/user/gcc/x86_64-w64-mingw32/include/stdio.h"
	.file 6 "c:/users/user/gcc/include/c++/10.2.0/cmath"
	.file 7 "c:/users/user/gcc/include/c++/10.2.0/bits/std_abs.h"
	.file 8 "c:/users/user/gcc/include/c++/10.2.0/cstdlib"
	.file 9 "c:/users/user/gcc/include/c++/10.2.0/ctime"
	.file 10 "c:/users/user/gcc/include/c++/10.2.0/type_traits"
	.file 11 "c:/users/user/gcc/include/c++/10.2.0/cstdint"
	.file 12 "c:/users/user/gcc/include/c++/10.2.0/x86_64-w64-mingw32/bits/c++config.h"
	.file 13 "c:/users/user/gcc/include/c++/10.2.0/chrono"
	.file 14 "c:/users/user/gcc/x86_64-w64-mingw32/include/math.h"
	.file 15 "c:/users/user/gcc/x86_64-w64-mingw32/include/stdlib.h"
	.file 16 "c:/users/user/gcc/include/c++/10.2.0/math.h"
	.file 17 "c:/users/user/gcc/include/c++/10.2.0/stdlib.h"
	.file 18 "../library/list/list.h"
	.file 19 "c:/users/user/gcc/x86_64-w64-mingw32/include/time.h"
	.file 20 "c:/users/user/gcc/x86_64-w64-mingw32/include/stdint.h"
	.file 21 "HashTable.h"
	.file 22 "<built-in>"